target datalayout = "e-m:e-p270:32:32-p271:32:32-p272:64:64-i64:64-i128:128-f80:128-n8:16:32:64-S128"
target triple = "x86_64-pc-linux-gnu"

%"struct.std::atomic.6" = type { %"struct.std::__atomic_base.5" }
%"struct.std::__atomic_base.5" = type { i8 }
%class.anon.48 = type { i8 }
%"struct.arrow::GlobalState" = type { %"struct.std::atomic.6", [63 x i8], %"class.arrow::SystemMemoryPool", %"class.arrow::SystemDebugMemoryPool", %"class.arrow::MimallocMemoryPool", %"class.arrow::MimallocDebugMemoryPool" }
%"class.arrow::SystemMemoryPool" = type { %"class.arrow::BaseMemoryPoolImpl.2" }
%"class.arrow::BaseMemoryPoolImpl.2" = type { %"class.arrow::MemoryPool", [56 x i8], %"class.arrow::internal::MemoryPoolStats" }
%"class.arrow::MemoryPool" = type { ptr }
%"class.arrow::internal::MemoryPoolStats" = type { %"struct.std::atomic", %"struct.std::atomic", %"struct.std::atomic", %"struct.std::atomic", [32 x i8] }
%"struct.std::atomic" = type { %"struct.std::__atomic_base" }
%"struct.std::__atomic_base" = type { i64 }
%"class.arrow::SystemDebugMemoryPool" = type { %"class.arrow::BaseMemoryPoolImpl" }
%"class.arrow::BaseMemoryPoolImpl" = type { %"class.arrow::MemoryPool", [56 x i8], %"class.arrow::internal::MemoryPoolStats" }
%"class.arrow::MimallocMemoryPool" = type { %"class.arrow::BaseMemoryPoolImpl.4" }
%"class.arrow::BaseMemoryPoolImpl.4" = type { %"class.arrow::MemoryPool", [56 x i8], %"class.arrow::internal::MemoryPoolStats" }
%"class.arrow::MimallocDebugMemoryPool" = type { %"class.arrow::BaseMemoryPoolImpl.3" }
%"class.arrow::BaseMemoryPoolImpl.3" = type { %"class.arrow::MemoryPool", [56 x i8], %"class.arrow::internal::MemoryPoolStats" }
%"class.arrow::Status" = type { ptr }

@_ZZN5arrow12_GLOBAL__N_114IsDebugEnabledEvE10is_enabled = internal global i8 0, align 1
@_ZGVZN5arrow12_GLOBAL__N_114IsDebugEnabledEvE10is_enabled = internal global i64 0, align 8

; Function Attrs: mustprogress nounwind uwtable
define linkonce_odr void @_ZN5arrow6StatusC2Ev(ptr noundef nonnull align 8 dereferenceable(8) %0) unnamed_addr #4 comdat align 2 {
  %2 = alloca ptr, align 8
  store ptr %0, ptr %2, align 8, !tbaa !43
  %3 = load ptr, ptr %2, align 8
  %4 = getelementptr inbounds nuw %"class.arrow::Status", ptr %3, i32 0, i32 0
  store ptr null, ptr %4, align 8, !tbaa !45
  ret void
}

; Function Attrs: mustprogress uwtable
define internal noundef zeroext i1 @_ZN5arrow12_GLOBAL__N_114IsDebugEnabledEv() #5 personality ptr @__gxx_personality_v0 {
  %1 = alloca %class.anon.48, align 1
  %2 = alloca ptr, align 8
  %3 = alloca i32, align 4
  %4 = load atomic i8, ptr @_ZGVZN5arrow12_GLOBAL__N_114IsDebugEnabledEvE10is_enabled acquire, align 8
  %5 = icmp eq i8 %4, 0
  br i1 %5, label %6, label %14, !prof !14

6:                                                ; preds = %0
  %7 = call i32 @__cxa_guard_acquire(ptr @_ZGVZN5arrow12_GLOBAL__N_114IsDebugEnabledEvE10is_enabled) #3
  %8 = icmp ne i32 %7, 0
  br i1 %8, label %9, label %14

9:                                                ; preds = %6
  call void @llvm.lifetime.start.p0(i64 1, ptr %1) #3
  %10 = invoke noundef zeroext i1 @"_ZZN5arrow12_GLOBAL__N_114IsDebugEnabledEvENK3$_0clEv"(ptr noundef nonnull align 1 dereferenceable(1) %1)
          to label %11 unwind label %17

11:                                               ; preds = %9
  call void @llvm.lifetime.end.p0(i64 1, ptr %1) #3
  %12 = zext i1 %10 to i8
  store i8 %12, ptr @_ZZN5arrow12_GLOBAL__N_114IsDebugEnabledEvE10is_enabled, align 1, !tbaa !15
  %13 = call ptr @llvm.invariant.start.p0(i64 1, ptr @_ZZN5arrow12_GLOBAL__N_114IsDebugEnabledEvE10is_enabled)
  call void @__cxa_guard_release(ptr @_ZGVZN5arrow12_GLOBAL__N_114IsDebugEnabledEvE10is_enabled) #3
  br label %14

14:                                               ; preds = %11, %6, %0
  %15 = load i8, ptr @_ZZN5arrow12_GLOBAL__N_114IsDebugEnabledEvE10is_enabled, align 1, !tbaa !15, !range !17, !noundef !18
  %16 = trunc i8 %15 to i1
  ret i1 %16

17:                                               ; preds = %9
  %18 = landingpad { ptr, i32 }
          cleanup
  %19 = extractvalue { ptr, i32 } %18, 0
  store ptr %19, ptr %2, align 8
  %20 = extractvalue { ptr, i32 } %18, 1
  store i32 %20, ptr %3, align 4
  call void @llvm.lifetime.end.p0(i64 1, ptr %1) #3
  call void @__cxa_guard_abort(ptr @_ZGVZN5arrow12_GLOBAL__N_114IsDebugEnabledEvE10is_enabled) #3
  br label %21

21:                                               ; preds = %17
  %22 = load ptr, ptr %2, align 8
  %23 = load i32, ptr %3, align 4
  %24 = insertvalue { ptr, i32 } poison, ptr %22, 0
  %25 = insertvalue { ptr, i32 } %24, i32 %23, 1
  resume { ptr, i32 } %25
}

; Function Attrs: mustprogress nounwind uwtable
define linkonce_odr void @_ZN5arrow6Status2OKEv(ptr dead_on_unwind noalias writable sret(%"class.arrow::Status") align 8 %0) #4 comdat align 2 {
  %2 = alloca ptr, align 8
  store ptr %0, ptr %2, align 8
  call void @_ZN5arrow6StatusC2Ev(ptr noundef nonnull align 8 dereferenceable(8) %0) #3
  ret void
}

; Function Attrs: mustprogress uwtable
define linkonce_odr noundef ptr @_ZN5arrow11GlobalState20mimalloc_memory_poolEv(ptr noundef nonnull align 64 dereferenceable(576) %0) #5 comdat align 2 {
  %2 = alloca ptr, align 8
  %3 = alloca ptr, align 8
  store ptr %0, ptr %3, align 8, !tbaa !35
  %4 = load ptr, ptr %3, align 8
  %5 = call noundef zeroext i1 @_ZN5arrow12_GLOBAL__N_114IsDebugEnabledEv()
  br i1 %5, label %6, label %8

6:                                                ; preds = %1
  %7 = getelementptr inbounds nuw %"struct.arrow::GlobalState", ptr %4, i32 0, i32 5
  store ptr %7, ptr %2, align 8
  br label %10

8:                                                ; preds = %1
  %9 = getelementptr inbounds nuw %"struct.arrow::GlobalState", ptr %4, i32 0, i32 4
  store ptr %9, ptr %2, align 8
  br label %10

10:                                               ; preds = %8, %6
  %11 = load ptr, ptr %2, align 8
  ret ptr %11
}

; Function Attrs: mustprogress uwtable
define void @_ZN5arrow20mimalloc_memory_poolEPPNS_10MemoryPoolE(ptr dead_on_unwind noalias writable sret(%"class.arrow::Status") align 8 %0, ptr noundef %1) #5 {
  %3 = alloca ptr, align 8
  %4 = alloca ptr, align 8
  store ptr %0, ptr %3, align 8
  store ptr %1, ptr %4, align 8, !tbaa !37
  %5 = call noundef ptr @_ZN5arrow11GlobalState20mimalloc_memory_poolEv(ptr noundef nonnull align 64 dereferenceable(576) @_ZN5arrowL12global_stateE)
  %6 = load ptr, ptr %4, align 8, !tbaa !37
  store ptr %5, ptr %6, align 8, !tbaa !3
  call void @_ZN5arrow6Status2OKEv(ptr dead_on_unwind writable sret(%"class.arrow::Status") align 8 %0)
  ret void
}