; Function Attrs: mustprogress uwtable
define void @_ZN5arrow20mimalloc_memory_poolEPPNS_10MemoryPoolE(ptr dead_on_unwind noalias writable writeonly sret(%"class.arrow::Status") align 8 captures(none) %0, ptr noundef writeonly captures(none) %1) local_unnamed_addr #4 personality ptr @__gxx_personality_v0 {
  %3 = load atomic i8, ptr @_ZGVZN5arrow12_GLOBAL__N_114IsDebugEnabledEvE10is_enabled acquire, align 8
  %4 = icmp eq i8 %3, 0
  br i1 %4, label %5, label %_ZN5arrow11GlobalState20mimalloc_memory_poolEv.exit, !prof !3

5:                                                ; preds = %2
  %6 = tail call i32 @__cxa_guard_acquire(ptr nonnull @_ZGVZN5arrow12_GLOBAL__N_114IsDebugEnabledEvE10is_enabled) #32
  %.not.i.i = icmp eq i32 %6, 0
  br i1 %.not.i.i, label %_ZN5arrow11GlobalState20mimalloc_memory_poolEv.exit, label %7

7:                                                ; preds = %5
  %8 = invoke fastcc noundef zeroext i1 @"_ZZN5arrow12_GLOBAL__N_114IsDebugEnabledEvENK3$_0clEv"()
          to label %9 unwind label %12

9:                                                ; preds = %7
  %10 = zext i1 %8 to i8
  store i8 %10, ptr @_ZZN5arrow12_GLOBAL__N_114IsDebugEnabledEvE10is_enabled, align 1, !tbaa !4
  %11 = tail call ptr @llvm.invariant.start.p0(i64 1, ptr nonnull @_ZZN5arrow12_GLOBAL__N_114IsDebugEnabledEvE10is_enabled)
  tail call void @__cxa_guard_release(ptr nonnull @_ZGVZN5arrow12_GLOBAL__N_114IsDebugEnabledEvE10is_enabled) #32
  br label %_ZN5arrow11GlobalState20mimalloc_memory_poolEv.exit

12:                                               ; preds = %7
  %13 = landingpad { ptr, i32 }
          cleanup
  tail call void @__cxa_guard_abort(ptr nonnull @_ZGVZN5arrow12_GLOBAL__N_114IsDebugEnabledEvE10is_enabled) #32
  resume { ptr, i32 } %13

_ZN5arrow11GlobalState20mimalloc_memory_poolEv.exit: ; preds = %2, %5, %9
  %14 = load i8, ptr @_ZZN5arrow12_GLOBAL__N_114IsDebugEnabledEvE10is_enabled, align 1, !tbaa !4, !range !8, !noundef !9
  %15 = trunc nuw i8 %14 to i1
  %.0.v.i = select i1 %15, i64 448, i64 320
  %.0.i = getelementptr inbounds nuw i8, ptr @_ZN5arrowL12global_stateE, i64 %.0.v.i
  store ptr %.0.i, ptr %1, align 8, !tbaa !12
  store ptr null, ptr %0, align 8, !tbaa !21, !alias.scope !24
  ret void
}